; Function Attrs: mustprogress nounwind uwtable
define internal void @_ZN7rocksdb12_GLOBAL__N_113PosixFileLockD0Ev(ptr noundef nonnull align 8 dereferenceable(48) %this) unnamed_addr #3 align 2 {
entry:
  store ptr getelementptr inbounds ({ [4 x ptr] }, ptr @_ZTVN7rocksdb12_GLOBAL__N_113PosixFileLockE, i64 0, i32 0, i64 2), ptr %this, align 8
  %filename.i = getelementptr inbounds i8, ptr %this, i64 16
  tail call void @_ZNSt7__cxx1112basic_stringIcSt11char_traitsIcESaIcEED1Ev(ptr noundef nonnull align 8 dereferenceable(32) %filename.i) #29
  tail call void @_ZN7rocksdb8FileLockD2Ev(ptr noundef nonnull align 8 dereferenceable(8) %this) #29
  tail call void @_ZdlPv(ptr noundef nonnull %this) #32
  ret void
}